; Function Attrs: mustprogress uwtable
define hidden void @_ZN3ade5Graph6unlinkERKNS_6HandleINS_4NodeEEE(ptr noundef nonnull readnone align 8 captures(none) dereferenceable(168) %0, ptr noundef nonnull readonly align 8 captures(none) dereferenceable(16) %1) local_unnamed_addr #2 align 2 personality ptr @__gxx_personality_v0 {
  %3 = getelementptr inbounds nuw i8, ptr %1, i64 8
  %4 = load ptr, ptr %3, align 8, !tbaa !59, !noalias !89, !nonnull !92, !noundef !92
  %5 = getelementptr inbounds nuw i8, ptr %4, i64 8
  %6 = load atomic i32, ptr %5 monotonic, align 8, !noalias !89
  br label %7

7:                                                ; preds = %7, %2
  %.06.i.i.i.i.i.i.i = phi i32 [ %6, %2 ], [ %11, %7 ]
  %.not.not.not.i.not.i.i.i.i.i.i = icmp ne i32 %.06.i.i.i.i.i.i.i, 0
  tail call void @llvm.assume(i1 %.not.not.not.i.not.i.i.i.i.i.i)
  %8 = add nsw i32 %.06.i.i.i.i.i.i.i, 1
  %9 = cmpxchg weak ptr %5, i32 %.06.i.i.i.i.i.i.i, i32 %8 acq_rel monotonic, align 8, !noalias !89
  %10 = extractvalue { i32, i1 } %9, 1
  %11 = extractvalue { i32, i1 } %9, 0
  br i1 %10, label %_ZNKSt14__shared_countILN9__gnu_cxx12_Lock_policyE2EE16_M_get_use_countEv.exit.i.i.i.i.i, label %7, !llvm.loop !78

_ZNKSt14__shared_countILN9__gnu_cxx12_Lock_policyE2EE16_M_get_use_countEv.exit.i.i.i.i.i: ; preds = %7
  %12 = load atomic i32, ptr %5 monotonic, align 8, !noalias !89
  %13 = load ptr, ptr %1, align 8, !noalias !89
  %14 = load atomic i64, ptr %5 acquire, align 8
  %15 = icmp eq i64 %14, 4294967297
  %16 = trunc i64 %14 to i32
  br i1 %15, label %17, label %25

17:                                               ; preds = %_ZNKSt14__shared_countILN9__gnu_cxx12_Lock_policyE2EE16_M_get_use_countEv.exit.i.i.i.i.i
  store i32 0, ptr %5, align 8, !tbaa !37
  %18 = getelementptr inbounds nuw i8, ptr %4, i64 12
  store i32 0, ptr %18, align 4, !tbaa !40
  %19 = load ptr, ptr %4, align 8, !tbaa !41
  %20 = getelementptr inbounds nuw i8, ptr %19, i64 16
  %21 = load ptr, ptr %20, align 8
  tail call void %21(ptr noundef nonnull align 8 dereferenceable(16) %4) #23
  %22 = load ptr, ptr %4, align 8, !tbaa !41
  %23 = getelementptr inbounds nuw i8, ptr %22, i64 24
  %24 = load ptr, ptr %23, align 8
  tail call void %24(ptr noundef nonnull align 8 dereferenceable(16) %4) #23
  br label %_ZNK3ade6HandleINS_4NodeEEptEv.exit

25:                                               ; preds = %_ZNKSt14__shared_countILN9__gnu_cxx12_Lock_policyE2EE16_M_get_use_countEv.exit.i.i.i.i.i
  %26 = load i8, ptr @__libc_single_threaded, align 1, !tbaa !43
  %.not.i.i.i1.i.i = icmp eq i8 %26, 0
  br i1 %.not.i.i.i1.i.i, label %29, label %27

27:                                               ; preds = %25
  %28 = add nsw i32 %16, -1
  store i32 %28, ptr %5, align 4, !tbaa !44
  br label %_ZN9__gnu_cxx27__exchange_and_add_dispatchEPii.exit.i.i.i.i.i

29:                                               ; preds = %25
  %30 = atomicrmw volatile add ptr %5, i32 -1 acq_rel, align 4
  br label %_ZN9__gnu_cxx27__exchange_and_add_dispatchEPii.exit.i.i.i.i.i

_ZN9__gnu_cxx27__exchange_and_add_dispatchEPii.exit.i.i.i.i.i: ; preds = %29, %27
  %.0.i.i.i.i.i.i = phi i32 [ %16, %27 ], [ %30, %29 ]
  %31 = icmp eq i32 %.0.i.i.i.i.i.i, 1
  br i1 %31, label %32, label %_ZNK3ade6HandleINS_4NodeEEptEv.exit, !prof !45

32:                                               ; preds = %_ZN9__gnu_cxx27__exchange_and_add_dispatchEPii.exit.i.i.i.i.i
  tail call void @_ZNSt16_Sp_counted_baseILN9__gnu_cxx12_Lock_policyE2EE24_M_release_last_use_coldEv(ptr noundef nonnull align 8 dereferenceable(16) %4) #23
  br label %_ZNK3ade6HandleINS_4NodeEEptEv.exit

_ZNK3ade6HandleINS_4NodeEEptEv.exit:              ; preds = %17, %_ZN9__gnu_cxx27__exchange_and_add_dispatchEPii.exit.i.i.i.i.i, %32
  %.fr.i.i.i.i.i = freeze i32 %12
  %.not.i.i.i.i.i = icmp ne i32 %.fr.i.i.i.i.i, 0
  %33 = icmp ne ptr %13, null
  tail call void @llvm.assume(i1 %.not.i.i.i.i.i)
  tail call void @llvm.assume(i1 %33)
  tail call void @_ZN3ade4Node6unlinkEv(ptr noundef nonnull align 8 dereferenceable(72) %13)
  ret void
}